; Function Attrs: mustprogress uwtable
define void @_ZN5faiss12WorkerThread4stopEv(ptr noundef nonnull align 8 dereferenceable(184) %0) local_unnamed_addr #0 align 2 personality ptr @__gxx_personality_v0 {
  %2 = getelementptr inbounds nuw i8, ptr %0, i64 8
  %3 = tail call noundef i32 @pthread_mutex_lock(ptr noundef nonnull align 8 dereferenceable(40) %2) #25
  %.not.i.i = icmp eq i32 %3, 0
  br i1 %.not.i.i, label %_ZNSt10lock_guardISt5mutexEC2ERS0_.exit, label %4

4:                                                ; preds = %1
  tail call void @_ZSt20__throw_system_errori(i32 noundef %3) #28
  unreachable

_ZNSt10lock_guardISt5mutexEC2ERS0_.exit:          ; preds = %1
  %5 = getelementptr inbounds nuw i8, ptr %0, i64 96
  store i8 1, ptr %5, align 8, !tbaa !4
  %6 = getelementptr inbounds nuw i8, ptr %0, i64 48
  tail call void @_ZNSt18condition_variable10notify_oneEv(ptr noundef nonnull align 8 dereferenceable(48) %6) #25
  %7 = tail call noundef i32 @pthread_mutex_unlock(ptr noundef nonnull align 8 dereferenceable(40) %2) #25
  ret void
}